; Function Attrs: mustprogress nounwind uwtable
define hidden noundef ptr @_ZN9UModINode5IdealEP8PhaseGVNb(ptr noundef nonnull align 8 dereferenceable(52) %0, ptr noundef %1, i1 noundef zeroext %2) unnamed_addr #0 align 2 {
  %4 = getelementptr inbounds i8, ptr %0, i64 8
  %5 = load ptr, ptr %4, align 8
  %6 = load ptr, ptr %5, align 8
  %.not = icmp eq ptr %6, null
  br i1 %.not, label %9, label %7

7:                                                ; preds = %3
  %8 = tail call noundef zeroext i1 @_ZN4Node18remove_dead_regionEP8PhaseGVNb(ptr noundef nonnull align 8 dereferenceable(52) %0, ptr noundef %1, i1 noundef zeroext %2) #8
  br i1 %8, label %10, label %9

9:                                                ; preds = %7, %3
  br label %10

10:                                               ; preds = %7, %9
  %.0 = phi ptr [ null, %9 ], [ %0, %7 ]
  ret ptr %.0
}